target datalayout = "e-m:e-p270:32:32-p271:32:32-p272:64:64-i64:64-i128:128-f80:128-n8:16:32:64-S128"
target triple = "x86_64-pc-linux-gnu"

%struct._zval_struct = type { %union._zend_value, %union.anon, %union.anon.3 }
%union._zend_value = type { i64 }
%union.anon = type { i32 }
%union.anon.3 = type { i32 }
%struct._zend_array = type { %struct._zend_refcounted_h, %union.anon.5, i32, %union.anon.7, i32, i32, i32, i32, i64, ptr }
%struct._zend_refcounted_h = type { i32, %union.anon.4 }
%union.anon.4 = type { i32 }
%union.anon.5 = type { i32 }
%union.anon.7 = type { ptr }
%struct._zend_string = type { %struct._zend_refcounted_h, i64, i64, [1 x i8] }

; Function Attrs: nounwind uwtable
define internal i32 @ct_eval_bool_cast(ptr noundef %0, ptr noundef %1) #0 {
  %3 = alloca ptr, align 8
  %4 = alloca ptr, align 8
  %5 = alloca i32, align 4
  %6 = alloca ptr, align 8
  %7 = alloca ptr, align 8
  store ptr %0, ptr %6, align 8
  store ptr %1, ptr %7, align 8
  %8 = load ptr, ptr %7, align 8
  store ptr %8, ptr %4, align 8
  %9 = load ptr, ptr %4, align 8
  %10 = getelementptr inbounds %struct._zval_struct, ptr %9, i32 0, i32 1
  %11 = load i8, ptr %10, align 8
  %12 = zext i8 %11 to i32
  %13 = icmp eq i32 %12, 253
  br i1 %13, label %14, label %28

14:                                               ; preds = %2
  %15 = load ptr, ptr %7, align 8
  %16 = getelementptr inbounds %struct._zval_struct, ptr %15, i32 0, i32 0
  %17 = load ptr, ptr %16, align 8
  store ptr %17, ptr %3, align 8
  %18 = load ptr, ptr %3, align 8
  %19 = getelementptr inbounds %struct._zend_array, ptr %18, i32 0, i32 5
  %20 = load i32, ptr %19, align 4
  %21 = icmp eq i32 %20, 0
  br i1 %21, label %22, label %23

22:                                               ; preds = %14
  store i32 -1, ptr %5, align 4
  br label %37

23:                                               ; preds = %14
  br label %24

24:                                               ; preds = %23
  %25 = load ptr, ptr %6, align 8
  %26 = getelementptr inbounds %struct._zval_struct, ptr %25, i32 0, i32 1
  store i32 3, ptr %26, align 8
  br label %27

27:                                               ; preds = %24
  store i32 0, ptr %5, align 4
  br label %37

28:                                               ; preds = %2
  br label %29

29:                                               ; preds = %28
  %30 = load ptr, ptr %7, align 8
  %31 = call i32 @zend_is_true(ptr noundef %30)
  %32 = icmp ne i32 %31, 0
  %33 = select i1 %32, i32 3, i32 2
  %34 = load ptr, ptr %6, align 8
  %35 = getelementptr inbounds %struct._zval_struct, ptr %34, i32 0, i32 1
  store i32 %33, ptr %35, align 8
  br label %36

36:                                               ; preds = %29
  store i32 0, ptr %5, align 4
  br label %37

37:                                               ; preds = %36, %27, %22
  %38 = load i32, ptr %5, align 4
  ret i32 %38
}

; Function Attrs: nounwind uwtable
define internal i32 @ct_eval_isset_isempty(ptr noundef %0, i32 noundef %1, ptr noundef %2) #0 {
  %4 = alloca ptr, align 8
  %5 = alloca ptr, align 8
  %6 = alloca i32, align 4
  %7 = alloca ptr, align 8
  %8 = alloca i32, align 4
  %9 = alloca ptr, align 8
  %10 = alloca %struct._zval_struct, align 8
  store ptr %0, ptr %7, align 8
  store i32 %1, ptr %8, align 4
  store ptr %2, ptr %9, align 8
  %11 = load i32, ptr %8, align 4
  %12 = and i32 %11, 1
  %13 = icmp ne i32 %12, 0
  br i1 %13, label %31, label %14

14:                                               ; preds = %3
  br label %15

15:                                               ; preds = %14
  %16 = load ptr, ptr %9, align 8
  %17 = icmp ne ptr %16, null
  br i1 %17, label %18, label %25

18:                                               ; preds = %15
  %19 = load ptr, ptr %9, align 8
  store ptr %19, ptr %4, align 8
  %20 = load ptr, ptr %4, align 8
  %21 = getelementptr inbounds %struct._zval_struct, ptr %20, i32 0, i32 1
  %22 = load i8, ptr %21, align 8
  %23 = zext i8 %22 to i32
  %24 = icmp ne i32 %23, 1
  br label %25

25:                                               ; preds = %18, %15
  %26 = phi i1 [ false, %15 ], [ %24, %18 ]
  %27 = select i1 %26, i32 3, i32 2
  %28 = load ptr, ptr %7, align 8
  %29 = getelementptr inbounds %struct._zval_struct, ptr %28, i32 0, i32 1
  store i32 %27, ptr %29, align 8
  br label %30

30:                                               ; preds = %25
  store i32 0, ptr %6, align 4
  br label %55

31:                                               ; preds = %3
  %32 = load ptr, ptr %9, align 8
  %33 = icmp ne ptr %32, null
  br i1 %33, label %39, label %34

34:                                               ; preds = %31
  br label %35

35:                                               ; preds = %34
  %36 = load ptr, ptr %7, align 8
  %37 = getelementptr inbounds %struct._zval_struct, ptr %36, i32 0, i32 1
  store i32 3, ptr %37, align 8
  br label %38

38:                                               ; preds = %35
  store i32 0, ptr %6, align 4
  br label %55

39:                                               ; preds = %31
  %40 = load ptr, ptr %9, align 8
  %41 = call i32 @ct_eval_bool_cast(ptr noundef %10, ptr noundef %40)
  %42 = icmp eq i32 %41, 0
  br i1 %42, label %43, label %54

43:                                               ; preds = %39
  br label %44

44:                                               ; preds = %43
  store ptr %10, ptr %5, align 8
  %45 = load ptr, ptr %5, align 8
  %46 = getelementptr inbounds %struct._zval_struct, ptr %45, i32 0, i32 1
  %47 = load i8, ptr %46, align 8
  %48 = zext i8 %47 to i32
  %49 = icmp eq i32 %48, 2
  %50 = select i1 %49, i32 3, i32 2
  %51 = load ptr, ptr %7, align 8
  %52 = getelementptr inbounds %struct._zval_struct, ptr %51, i32 0, i32 1
  store i32 %50, ptr %52, align 8
  br label %53

53:                                               ; preds = %44
  store i32 0, ptr %6, align 4
  br label %55

54:                                               ; preds = %39
  store i32 -1, ptr %6, align 4
  br label %55

55:                                               ; preds = %54, %53, %38, %30
  %56 = load i32, ptr %6, align 4
  ret i32 %56
}

; Function Attrs: nounwind uwtable
define internal i32 @fetch_obj_prop(ptr noundef %0, ptr noundef %1, ptr noundef %2) #0 {
  %4 = alloca i1, align 1
  %5 = alloca ptr, align 8
  %6 = alloca i64, align 8
  %7 = alloca ptr, align 8
  %8 = alloca ptr, align 8
  %9 = alloca ptr, align 8
  %10 = alloca ptr, align 8
  %11 = alloca ptr, align 8
  %12 = alloca i64, align 8
  %13 = alloca ptr, align 8
  %14 = alloca i32, align 4
  %15 = alloca ptr, align 8
  %16 = alloca ptr, align 8
  %17 = alloca ptr, align 8
  store ptr %0, ptr %15, align 8
  store ptr %1, ptr %16, align 8
  store ptr %2, ptr %17, align 8
  %18 = load ptr, ptr %17, align 8
  store ptr %18, ptr %13, align 8
  %19 = load ptr, ptr %13, align 8
  %20 = getelementptr inbounds %struct._zval_struct, ptr %19, i32 0, i32 1
  %21 = load i8, ptr %20, align 8
  %22 = zext i8 %21 to i32
  switch i32 %22, label %84 [
    i32 6, label %23
  ]

23:                                               ; preds = %3
  %24 = load ptr, ptr %16, align 8
  %25 = getelementptr inbounds %struct._zval_struct, ptr %24, i32 0, i32 0
  %26 = load ptr, ptr %25, align 8
  %27 = load ptr, ptr %17, align 8
  %28 = getelementptr inbounds %struct._zval_struct, ptr %27, i32 0, i32 0
  %29 = load ptr, ptr %28, align 8
  store ptr %26, ptr %10, align 8
  store ptr %29, ptr %11, align 8
  %30 = load ptr, ptr %11, align 8
  %31 = getelementptr inbounds %struct._zend_string, ptr %30, i32 0, i32 3
  %32 = load ptr, ptr %11, align 8
  %33 = getelementptr inbounds %struct._zend_string, ptr %32, i32 0, i32 2
  %34 = load i64, ptr %33, align 8
  store ptr %31, ptr %5, align 8
  store i64 %34, ptr %6, align 8
  store ptr %12, ptr %7, align 8
  %35 = load ptr, ptr %5, align 8
  store ptr %35, ptr %8, align 8
  %36 = load ptr, ptr %8, align 8
  %37 = load i8, ptr %36, align 1
  %38 = sext i8 %37 to i32
  %39 = icmp sgt i32 %38, 57
  br i1 %39, label %40, label %41

40:                                               ; preds = %23
  store i1 false, ptr %4, align 1
  br label %71

41:                                               ; preds = %23
  %42 = load ptr, ptr %8, align 8
  %43 = load i8, ptr %42, align 1
  %44 = sext i8 %43 to i32
  %45 = icmp slt i32 %44, 48
  br i1 %45, label %46, label %66

46:                                               ; preds = %41
  %47 = load ptr, ptr %8, align 8
  %48 = load i8, ptr %47, align 1
  %49 = sext i8 %48 to i32
  %50 = icmp ne i32 %49, 45
  br i1 %50, label %51, label %52

51:                                               ; preds = %46
  store i1 false, ptr %4, align 1
  br label %71

52:                                               ; preds = %46
  %53 = load ptr, ptr %8, align 8
  %54 = getelementptr inbounds i8, ptr %53, i32 1
  store ptr %54, ptr %8, align 8
  %55 = load ptr, ptr %8, align 8
  %56 = load i8, ptr %55, align 1
  %57 = sext i8 %56 to i32
  %58 = icmp sgt i32 %57, 57
  br i1 %58, label %64, label %59

59:                                               ; preds = %52
  %60 = load ptr, ptr %8, align 8
  %61 = load i8, ptr %60, align 1
  %62 = sext i8 %61 to i32
  %63 = icmp slt i32 %62, 48
  br i1 %63, label %64, label %65

64:                                               ; preds = %59, %52
  store i1 false, ptr %4, align 1
  br label %71

65:                                               ; preds = %59
  br label %66

66:                                               ; preds = %65, %41
  %67 = load ptr, ptr %5, align 8
  %68 = load i64, ptr %6, align 8
  %69 = load ptr, ptr %7, align 8
  %70 = call zeroext i1 @_zend_handle_numeric_str_ex(ptr noundef %67, i64 noundef %68, ptr noundef %69) #10
  store i1 %70, ptr %4, align 1
  br label %71

71:                                               ; preds = %66, %64, %51, %40
  %72 = load i1, ptr %4, align 1
  br i1 %72, label %73, label %77

73:                                               ; preds = %71
  %74 = load ptr, ptr %10, align 8
  %75 = load i64, ptr %12, align 8
  %76 = call ptr @zend_hash_index_find(ptr noundef %74, i64 noundef %75) #10
  store ptr %76, ptr %9, align 8
  br label %81

77:                                               ; preds = %71
  %78 = load ptr, ptr %10, align 8
  %79 = load ptr, ptr %11, align 8
  %80 = call ptr @zend_hash_find(ptr noundef %78, ptr noundef %79) #10
  store ptr %80, ptr %9, align 8
  br label %81

81:                                               ; preds = %77, %73
  %82 = load ptr, ptr %9, align 8
  %83 = load ptr, ptr %15, align 8
  store ptr %82, ptr %83, align 8
  store i32 0, ptr %14, align 4
  br label %85

84:                                               ; preds = %3
  store i32 -1, ptr %14, align 4
  br label %85

85:                                               ; preds = %84, %81
  %86 = load i32, ptr %14, align 4
  ret i32 %86
}

; Function Attrs: nounwind uwtable
define internal i32 @ct_eval_isset_obj(ptr noundef %0, i32 noundef %1, ptr noundef %2, ptr noundef %3) #0 {
  %5 = alloca ptr, align 8
  %6 = alloca ptr, align 8
  %7 = alloca i32, align 4
  %8 = alloca ptr, align 8
  %9 = alloca i32, align 4
  %10 = alloca ptr, align 8
  %11 = alloca ptr, align 8
  %12 = alloca ptr, align 8
  store ptr %0, ptr %8, align 8
  store i32 %1, ptr %9, align 4
  store ptr %2, ptr %10, align 8
  store ptr %3, ptr %11, align 8
  %13 = load ptr, ptr %10, align 8
  store ptr %13, ptr %5, align 8
  %14 = load ptr, ptr %5, align 8
  %15 = getelementptr inbounds %struct._zval_struct, ptr %14, i32 0, i32 1
  %16 = load i8, ptr %15, align 8
  %17 = zext i8 %16 to i32
  %18 = icmp eq i32 %17, 252
  br i1 %18, label %19, label %41

19:                                               ; preds = %4
  %20 = load ptr, ptr %10, align 8
  %21 = load ptr, ptr %11, align 8
  %22 = call i32 @fetch_obj_prop(ptr noundef %12, ptr noundef %20, ptr noundef %21)
  %23 = icmp eq i32 %22, -1
  br i1 %23, label %24, label %25

24:                                               ; preds = %19
  store i32 -1, ptr %7, align 4
  br label %50

25:                                               ; preds = %19
  %26 = load ptr, ptr %12, align 8
  %27 = icmp ne ptr %26, null
  br i1 %27, label %28, label %35

28:                                               ; preds = %25
  %29 = load ptr, ptr %12, align 8
  store ptr %29, ptr %6, align 8
  %30 = load ptr, ptr %6, align 8
  %31 = getelementptr inbounds %struct._zval_struct, ptr %30, i32 0, i32 1
  %32 = load i8, ptr %31, align 8
  %33 = zext i8 %32 to i32
  %34 = icmp eq i32 %33, 254
  br i1 %34, label %35, label %36

35:                                               ; preds = %28, %25
  store i32 -1, ptr %7, align 4
  br label %50

36:                                               ; preds = %28
  %37 = load ptr, ptr %8, align 8
  %38 = load i32, ptr %9, align 4
  %39 = load ptr, ptr %12, align 8
  %40 = call i32 @ct_eval_isset_isempty(ptr noundef %37, i32 noundef %38, ptr noundef %39)
  store i32 %40, ptr %7, align 4
  br label %50

41:                                               ; preds = %4
  br label %42

42:                                               ; preds = %41
  %43 = load i32, ptr %9, align 4
  %44 = and i32 %43, 1
  %45 = icmp ne i32 %44, 0
  %46 = select i1 %45, i32 3, i32 2
  %47 = load ptr, ptr %8, align 8
  %48 = getelementptr inbounds %struct._zval_struct, ptr %47, i32 0, i32 1
  store i32 %46, ptr %48, align 8
  br label %49

49:                                               ; preds = %42
  store i32 0, ptr %7, align 4
  br label %50

50:                                               ; preds = %49, %36, %35, %24
  %51 = load i32, ptr %7, align 4
  ret i32 %51
}