; Function Attrs: nounwind uwtable
define internal fastcc noundef i32 @ct_eval_isset_obj(ptr nocapture noundef writeonly %0, i32 noundef %1, ptr nocapture noundef readonly %2, ptr nocapture noundef readonly %3) unnamed_addr #0 {
  %5 = alloca i64, align 8
  %6 = getelementptr inbounds i8, ptr %2, i64 8
  %7 = load i8, ptr %6, align 8
  %8 = icmp eq i8 %7, -4
  br i1 %8, label %9, label %53

9:                                                ; preds = %4
  call void @llvm.lifetime.start.p0(i64 8, ptr nonnull %5)
  %10 = getelementptr inbounds i8, ptr %3, i64 8
  %11 = load i8, ptr %10, align 8
  %cond.i = icmp eq i8 %11, 6
  br i1 %cond.i, label %12, label %fetch_obj_prop.exit

12:                                               ; preds = %9
  %13 = load ptr, ptr %2, align 8
  %14 = load ptr, ptr %3, align 8
  %15 = getelementptr inbounds i8, ptr %14, i64 24
  %16 = getelementptr inbounds i8, ptr %14, i64 16
  %17 = load i64, ptr %16, align 8
  %18 = load i8, ptr %15, align 1
  %19 = icmp sgt i8 %18, 57
  br i1 %19, label %.critedge.i, label %20

20:                                               ; preds = %12
  %21 = icmp slt i8 %18, 48
  br i1 %21, label %22, label %27

22:                                               ; preds = %20
  %.not.i = icmp eq i8 %18, 45
  br i1 %.not.i, label %23, label %.critedge.i

23:                                               ; preds = %22
  %24 = getelementptr inbounds i8, ptr %14, i64 25
  %25 = load i8, ptr %24, align 1
  %26 = add i8 %25, -58
  %or.cond.i = icmp ult i8 %26, -10
  br i1 %or.cond.i, label %.critedge.i, label %27

27:                                               ; preds = %23, %20
  %28 = call zeroext i1 @_zend_handle_numeric_str_ex(ptr noundef nonnull %15, i64 noundef %17, ptr noundef nonnull %5) #13
  br i1 %28, label %29, label %.critedge.i

29:                                               ; preds = %27
  %30 = load i64, ptr %5, align 8
  %31 = call ptr @zend_hash_index_find(ptr noundef %13, i64 noundef %30) #13
  br label %33

.critedge.i:                                      ; preds = %27, %23, %22, %12
  %32 = call ptr @zend_hash_find(ptr noundef %13, ptr noundef nonnull %14) #13
  br label %33

fetch_obj_prop.exit:                              ; preds = %9
  call void @llvm.lifetime.end.p0(i64 8, ptr nonnull %5)
  br label %ct_eval_isset_isempty.exit

33:                                               ; preds = %.critedge.i, %29
  %.011.ph = phi ptr [ %32, %.critedge.i ], [ %31, %29 ]
  call void @llvm.lifetime.end.p0(i64 8, ptr nonnull %5)
  %.not = icmp eq ptr %.011.ph, null
  br i1 %.not, label %ct_eval_isset_isempty.exit, label %34

34:                                               ; preds = %33
  %35 = getelementptr inbounds i8, ptr %.011.ph, i64 8
  %36 = load i8, ptr %35, align 8
  %37 = icmp eq i8 %36, -2
  br i1 %37, label %ct_eval_isset_isempty.exit, label %38

38:                                               ; preds = %34
  %39 = and i32 %1, 1
  %.not.i10 = icmp eq i32 %39, 0
  br i1 %.not.i10, label %40, label %42

40:                                               ; preds = %38
  %.not12.i = icmp eq i8 %36, 1
  %41 = select i1 %.not12.i, i32 2, i32 3
  br label %ct_eval_bool_cast.exit.sink.split.i

42:                                               ; preds = %38
  %43 = icmp eq i8 %36, -3
  br i1 %43, label %44, label %49

44:                                               ; preds = %42
  %45 = load ptr, ptr %.011.ph, align 8
  %46 = getelementptr inbounds i8, ptr %45, i64 28
  %47 = load i32, ptr %46, align 4
  %48 = icmp eq i32 %47, 0
  br i1 %48, label %ct_eval_isset_isempty.exit, label %ct_eval_bool_cast.exit.sink.split.i

49:                                               ; preds = %42
  %50 = call i32 @zend_is_true(ptr noundef nonnull %.011.ph) #13
  %.not.i.i = icmp eq i32 %50, 0
  %51 = select i1 %.not.i.i, i32 3, i32 2
  br label %ct_eval_bool_cast.exit.sink.split.i

ct_eval_bool_cast.exit.sink.split.i:              ; preds = %49, %44, %40
  %.sink.i.sink.i = phi i32 [ %41, %40 ], [ %51, %49 ], [ 2, %44 ]
  %52 = getelementptr inbounds i8, ptr %0, i64 8
  store i32 %.sink.i.sink.i, ptr %52, align 8
  br label %ct_eval_isset_isempty.exit

53:                                               ; preds = %4
  %54 = and i32 %1, 1
  %55 = or disjoint i32 %54, 2
  %56 = getelementptr inbounds i8, ptr %0, i64 8
  store i32 %55, ptr %56, align 8
  br label %ct_eval_isset_isempty.exit

ct_eval_isset_isempty.exit:                       ; preds = %ct_eval_bool_cast.exit.sink.split.i, %44, %fetch_obj_prop.exit, %33, %34, %53
  %.0 = phi i32 [ 0, %53 ], [ -1, %fetch_obj_prop.exit ], [ -1, %34 ], [ -1, %33 ], [ -1, %44 ], [ 0, %ct_eval_bool_cast.exit.sink.split.i ]
  ret i32 %.0
}